target datalayout = "e-m:e-p270:32:32-p271:32:32-p272:64:64-i64:64-i128:128-f80:128-n8:16:32:64-S128"
target triple = "x86_64-pc-linux-gnu"

%struct.job_resources = type { ptr, ptr, i32, ptr, ptr, ptr, ptr, ptr, i16, ptr, ptr, i32, i32, ptr, i32, ptr, i32, ptr, ptr, ptr, i16, i8 }
%struct.part_row_data_t = type { ptr, i32, i32, ptr, i32 }
%struct.node_record = type { ptr, ptr, i16, i64, i64, ptr, ptr, ptr, i16, ptr, i16, i16, i32, i32, i64, ptr, i16, i16, ptr, ptr, ptr, ptr, ptr, i64, i64, ptr, ptr, ptr, ptr, i32, ptr, ptr, i64, i64, i32, ptr, i64, ptr, i32, i16, ptr, ptr, i32, ptr, i32, i8, ptr, i32, i16, i16, ptr, i16, i64, i16, i64, ptr, i64, i32, i16, i64, i16, ptr, i16, i64, ptr, i64, i16, i32, i16, ptr, ptr, ptr, i16, i32, i16, i16, i32, ptr, i16, i32 }

@node_record_count = external global i32, align 4
@.str.19 = private unnamed_addr constant [34 x i8] c"core_array for node %d is NULL %d\00", align 1
@node_record_table_ptr = external global ptr, align 8

; Function Attrs: nounwind uwtable
define internal ptr @_create_core_bitmap(i32 noundef %0) #0 {
  %2 = alloca ptr, align 8
  %3 = alloca i32, align 4
  store i32 %0, ptr %3, align 4
  %4 = load ptr, ptr @node_record_table_ptr, align 8
  %5 = load i32, ptr %3, align 4
  %6 = sext i32 %5 to i64
  %7 = getelementptr inbounds ptr, ptr %4, i64 %6
  %8 = load ptr, ptr %7, align 8
  %9 = icmp ne ptr %8, null
  br i1 %9, label %11, label %10

10:                                               ; preds = %1
  store ptr null, ptr %2, align 8
  br label %21

11:                                               ; preds = %1
  %12 = load ptr, ptr @node_record_table_ptr, align 8
  %13 = load i32, ptr %3, align 4
  %14 = sext i32 %13 to i64
  %15 = getelementptr inbounds ptr, ptr %12, i64 %14
  %16 = load ptr, ptr %15, align 8
  %17 = getelementptr inbounds nuw %struct.node_record, ptr %16, i32 0, i32 74
  %18 = load i16, ptr %17, align 8
  %19 = zext i16 %18 to i64
  %20 = call ptr @bit_alloc(i64 noundef %19)
  store ptr %20, ptr %2, align 8
  br label %21

21:                                               ; preds = %11, %10
  %22 = load ptr, ptr %2, align 8
  ret ptr %22
}

; Function Attrs: nounwind uwtable
define internal i32 @_handle_job_res(ptr noundef %0, ptr noundef %1, i32 noundef %2) #0 {
  %4 = alloca i32, align 4
  %5 = alloca ptr, align 8
  %6 = alloca ptr, align 8
  %7 = alloca i32, align 4
  %8 = alloca i32, align 4
  %9 = alloca i32, align 4
  %10 = alloca ptr, align 8
  %11 = alloca i16, align 2
  %12 = alloca ptr, align 8
  %13 = alloca i32, align 4
  %14 = alloca i32, align 4
  %15 = alloca i32, align 4
  store ptr %0, ptr %5, align 8
  store ptr %1, ptr %6, align 8
  store i32 %2, ptr %7, align 4
  call void @llvm.lifetime.start.p0(i64 4, ptr %8) #3
  call void @llvm.lifetime.start.p0(i64 4, ptr %9) #3
  store i32 0, ptr %9, align 4
  call void @llvm.lifetime.start.p0(i64 8, ptr %10) #3
  call void @llvm.lifetime.start.p0(i64 2, ptr %11) #3
  call void @llvm.lifetime.start.p0(i64 8, ptr %12) #3
  %16 = load ptr, ptr %5, align 8
  %17 = getelementptr inbounds nuw %struct.job_resources, ptr %16, i32 0, i32 0
  %18 = load ptr, ptr %17, align 8
  %19 = icmp ne ptr %18, null
  br i1 %19, label %21, label %20

20:                                               ; preds = %3
  store i32 1, ptr %4, align 4
  store i32 1, ptr %13, align 4
  br label %211

21:                                               ; preds = %3
  %22 = load ptr, ptr %6, align 8
  %23 = getelementptr inbounds nuw %struct.part_row_data_t, ptr %22, i32 0, i32 3
  %24 = load ptr, ptr %23, align 8
  %25 = icmp ne ptr %24, null
  br i1 %25, label %53, label %26

26:                                               ; preds = %21
  %27 = load i32, ptr %7, align 4
  %28 = icmp eq i32 %27, 2
  br i1 %28, label %29, label %30

29:                                               ; preds = %26
  store i32 1, ptr %4, align 4
  store i32 1, ptr %13, align 4
  br label %211

30:                                               ; preds = %26
  %31 = call ptr @build_core_array()
  store ptr %31, ptr %10, align 8
  %32 = load ptr, ptr %10, align 8
  %33 = load ptr, ptr %6, align 8
  %34 = getelementptr inbounds nuw %struct.part_row_data_t, ptr %33, i32 0, i32 3
  store ptr %32, ptr %34, align 8
  %35 = load ptr, ptr %6, align 8
  %36 = getelementptr inbounds nuw %struct.part_row_data_t, ptr %35, i32 0, i32 4
  store i32 0, ptr %36, align 8
  call void @llvm.lifetime.start.p0(i64 4, ptr %14) #3
  store i32 0, ptr %14, align 4
  br label %37

37:                                               ; preds = %49, %30
  %38 = load i32, ptr %14, align 4
  %39 = load i32, ptr @node_record_count, align 4
  %40 = icmp slt i32 %38, %39
  br i1 %40, label %42, label %41

41:                                               ; preds = %37
  store i32 2, ptr %13, align 4
  call void @llvm.lifetime.end.p0(i64 4, ptr %14) #3
  br label %52

42:                                               ; preds = %37
  %43 = load i32, ptr %14, align 4
  %44 = call ptr @_create_core_bitmap(i32 noundef %43)
  %45 = load ptr, ptr %10, align 8
  %46 = load i32, ptr %14, align 4
  %47 = sext i32 %46 to i64
  %48 = getelementptr inbounds ptr, ptr %45, i64 %47
  store ptr %44, ptr %48, align 8
  br label %49

49:                                               ; preds = %42
  %50 = load i32, ptr %14, align 4
  %51 = add nsw i32 %50, 1
  store i32 %51, ptr %14, align 4
  br label %37, !llvm.loop !8

52:                                               ; preds = %41
  br label %57

53:                                               ; preds = %21
  %54 = load ptr, ptr %6, align 8
  %55 = getelementptr inbounds nuw %struct.part_row_data_t, ptr %54, i32 0, i32 3
  %56 = load ptr, ptr %55, align 8
  store ptr %56, ptr %10, align 8
  br label %57

57:                                               ; preds = %53, %52
  call void @llvm.lifetime.start.p0(i64 4, ptr %15) #3
  store i32 0, ptr %15, align 4
  br label %58

58:                                               ; preds = %205, %57
  %59 = load ptr, ptr %5, align 8
  %60 = getelementptr inbounds nuw %struct.job_resources, ptr %59, i32 0, i32 13
  %61 = load ptr, ptr %60, align 8
  %62 = call ptr @next_node_bitmap(ptr noundef %61, ptr noundef %15)
  store ptr %62, ptr %12, align 8
  %63 = icmp ne ptr %62, null
  br i1 %63, label %65, label %64

64:                                               ; preds = %58
  store i32 5, ptr %13, align 4
  br label %208

65:                                               ; preds = %58
  %66 = load ptr, ptr %12, align 8
  %67 = getelementptr inbounds nuw %struct.node_record, ptr %66, i32 0, i32 74
  %68 = load i16, ptr %67, align 8
  store i16 %68, ptr %11, align 2
  %69 = load ptr, ptr %5, align 8
  %70 = getelementptr inbounds nuw %struct.job_resources, ptr %69, i32 0, i32 21
  %71 = load i8, ptr %70, align 2
  %72 = zext i8 %71 to i32
  %73 = icmp eq i32 %72, 1
  br i1 %73, label %74, label %126

74:                                               ; preds = %65
  %75 = load ptr, ptr %10, align 8
  %76 = load i32, ptr %15, align 4
  %77 = sext i32 %76 to i64
  %78 = getelementptr inbounds ptr, ptr %75, i64 %77
  %79 = load ptr, ptr %78, align 8
  %80 = icmp ne ptr %79, null
  br i1 %80, label %89, label %81

81:                                               ; preds = %74
  %82 = load i32, ptr %7, align 4
  %83 = icmp ne i32 %82, 2
  br i1 %83, label %84, label %88

84:                                               ; preds = %81
  %85 = load i32, ptr %15, align 4
  %86 = load i32, ptr %7, align 4
  %87 = call i32 (ptr, ...) @error(ptr noundef @.str.19, i32 noundef %85, i32 noundef %86)
  br label %88

88:                                               ; preds = %84, %81
  br label %205

89:                                               ; preds = %74
  %90 = load i32, ptr %7, align 4
  switch i32 %90, label %125 [
    i32 0, label %91
    i32 1, label %103
    i32 2, label %115
  ]

91:                                               ; preds = %89
  %92 = load ptr, ptr %10, align 8
  %93 = load i32, ptr %15, align 4
  %94 = sext i32 %93 to i64
  %95 = getelementptr inbounds ptr, ptr %92, i64 %94
  %96 = load ptr, ptr %95, align 8
  call void @bit_set_all(ptr noundef %96)
  %97 = load i16, ptr %11, align 2
  %98 = zext i16 %97 to i32
  %99 = load ptr, ptr %6, align 8
  %100 = getelementptr inbounds nuw %struct.part_row_data_t, ptr %99, i32 0, i32 4
  %101 = load i32, ptr %100, align 8
  %102 = add i32 %101, %98
  store i32 %102, ptr %100, align 8
  br label %125

103:                                              ; preds = %89
  %104 = load ptr, ptr %10, align 8
  %105 = load i32, ptr %15, align 4
  %106 = sext i32 %105 to i64
  %107 = getelementptr inbounds ptr, ptr %104, i64 %106
  %108 = load ptr, ptr %107, align 8
  call void @bit_clear_all(ptr noundef %108)
  %109 = load i16, ptr %11, align 2
  %110 = zext i16 %109 to i32
  %111 = load ptr, ptr %6, align 8
  %112 = getelementptr inbounds nuw %struct.part_row_data_t, ptr %111, i32 0, i32 4
  %113 = load i32, ptr %112, align 8
  %114 = sub i32 %113, %110
  store i32 %114, ptr %112, align 8
  br label %125

115:                                              ; preds = %89
  %116 = load ptr, ptr %10, align 8
  %117 = load i32, ptr %15, align 4
  %118 = sext i32 %117 to i64
  %119 = getelementptr inbounds ptr, ptr %116, i64 %118
  %120 = load ptr, ptr %119, align 8
  %121 = call i64 @bit_ffs(ptr noundef %120)
  %122 = icmp ne i64 %121, -1
  br i1 %122, label %123, label %124

123:                                              ; preds = %115
  store i32 0, ptr %4, align 4
  store i32 1, ptr %13, align 4
  br label %208

124:                                              ; preds = %115
  br label %125

125:                                              ; preds = %89, %124, %103, %91
  br label %205

126:                                              ; preds = %65
  store i32 0, ptr %8, align 4
  br label %127

127:                                              ; preds = %197, %126
  %128 = load i32, ptr %8, align 4
  %129 = load i16, ptr %11, align 2
  %130 = zext i16 %129 to i32
  %131 = icmp slt i32 %128, %130
  br i1 %131, label %132, label %200

132:                                              ; preds = %127
  %133 = load ptr, ptr %5, align 8
  %134 = getelementptr inbounds nuw %struct.job_resources, ptr %133, i32 0, i32 0
  %135 = load ptr, ptr %134, align 8
  %136 = load i32, ptr %9, align 4
  %137 = load i32, ptr %8, align 4
  %138 = add nsw i32 %136, %137
  %139 = sext i32 %138 to i64
  %140 = call i32 @slurm_bit_test(ptr noundef %135, i64 noundef %139)
  %141 = icmp ne i32 %140, 0
  br i1 %141, label %143, label %142

142:                                              ; preds = %132
  br label %197

143:                                              ; preds = %132
  %144 = load ptr, ptr %10, align 8
  %145 = load i32, ptr %15, align 4
  %146 = sext i32 %145 to i64
  %147 = getelementptr inbounds ptr, ptr %144, i64 %146
  %148 = load ptr, ptr %147, align 8
  %149 = icmp ne ptr %148, null
  br i1 %149, label %158, label %150

150:                                              ; preds = %143
  %151 = load i32, ptr %7, align 4
  %152 = icmp ne i32 %151, 2
  br i1 %152, label %153, label %157

153:                                              ; preds = %150
  %154 = load i32, ptr %15, align 4
  %155 = load i32, ptr %7, align 4
  %156 = call i32 (ptr, ...) @error(ptr noundef @.str.19, i32 noundef %154, i32 noundef %155)
  br label %157

157:                                              ; preds = %153, %150
  br label %197

158:                                              ; preds = %143
  %159 = load i32, ptr %7, align 4
  switch i32 %159, label %196 [
    i32 0, label %160
    i32 1, label %172
    i32 2, label %184
  ]

160:                                              ; preds = %158
  %161 = load ptr, ptr %10, align 8
  %162 = load i32, ptr %15, align 4
  %163 = sext i32 %162 to i64
  %164 = getelementptr inbounds ptr, ptr %161, i64 %163
  %165 = load ptr, ptr %164, align 8
  %166 = load i32, ptr %8, align 4
  %167 = sext i32 %166 to i64
  call void @bit_set(ptr noundef %165, i64 noundef %167)
  %168 = load ptr, ptr %6, align 8
  %169 = getelementptr inbounds nuw %struct.part_row_data_t, ptr %168, i32 0, i32 4
  %170 = load i32, ptr %169, align 8
  %171 = add i32 %170, 1
  store i32 %171, ptr %169, align 8
  br label %196

172:                                              ; preds = %158
  %173 = load ptr, ptr %10, align 8
  %174 = load i32, ptr %15, align 4
  %175 = sext i32 %174 to i64
  %176 = getelementptr inbounds ptr, ptr %173, i64 %175
  %177 = load ptr, ptr %176, align 8
  %178 = load i32, ptr %8, align 4
  %179 = sext i32 %178 to i64
  call void @bit_clear(ptr noundef %177, i64 noundef %179)
  %180 = load ptr, ptr %6, align 8
  %181 = getelementptr inbounds nuw %struct.part_row_data_t, ptr %180, i32 0, i32 4
  %182 = load i32, ptr %181, align 8
  %183 = add i32 %182, -1
  store i32 %183, ptr %181, align 8
  br label %196

184:                                              ; preds = %158
  %185 = load ptr, ptr %10, align 8
  %186 = load i32, ptr %15, align 4
  %187 = sext i32 %186 to i64
  %188 = getelementptr inbounds ptr, ptr %185, i64 %187
  %189 = load ptr, ptr %188, align 8
  %190 = load i32, ptr %8, align 4
  %191 = sext i32 %190 to i64
  %192 = call i32 @slurm_bit_test(ptr noundef %189, i64 noundef %191)
  %193 = icmp ne i32 %192, 0
  br i1 %193, label %194, label %195

194:                                              ; preds = %184
  store i32 0, ptr %4, align 4
  store i32 1, ptr %13, align 4
  br label %208

195:                                              ; preds = %184
  br label %196

196:                                              ; preds = %158, %195, %172, %160
  br label %197

197:                                              ; preds = %196, %157, %142
  %198 = load i32, ptr %8, align 4
  %199 = add nsw i32 %198, 1
  store i32 %199, ptr %8, align 4
  br label %127, !llvm.loop !11

200:                                              ; preds = %127
  %201 = load i16, ptr %11, align 2
  %202 = zext i16 %201 to i32
  %203 = load i32, ptr %9, align 4
  %204 = add nsw i32 %203, %202
  store i32 %204, ptr %9, align 4
  br label %205

205:                                              ; preds = %200, %125, %88
  %206 = load i32, ptr %15, align 4
  %207 = add nsw i32 %206, 1
  store i32 %207, ptr %15, align 4
  br label %58, !llvm.loop !12

208:                                              ; preds = %194, %123, %64
  call void @llvm.lifetime.end.p0(i64 4, ptr %15) #3
  %209 = load i32, ptr %13, align 4
  switch i32 %209, label %211 [
    i32 5, label %210
  ]

210:                                              ; preds = %208
  store i32 1, ptr %4, align 4
  store i32 1, ptr %13, align 4
  br label %211

211:                                              ; preds = %210, %208, %29, %20
  call void @llvm.lifetime.end.p0(i64 8, ptr %12) #3
  call void @llvm.lifetime.end.p0(i64 2, ptr %11) #3
  call void @llvm.lifetime.end.p0(i64 8, ptr %10) #3
  call void @llvm.lifetime.end.p0(i64 4, ptr %9) #3
  call void @llvm.lifetime.end.p0(i64 4, ptr %8) #3
  %212 = load i32, ptr %4, align 4
  ret i32 %212
}