; Function Attrs: nounwind uwtable
define internal fastcc range(i32 0, 2) i32 @_handle_job_res(ptr noundef readonly captures(none) %0, ptr noundef captures(none) %1, i32 noundef range(i32 0, 3) %2) unnamed_addr #1 {
  %4 = alloca i32, align 4
  %5 = load ptr, ptr %0, align 8
  %.not = icmp eq ptr %5, null
  br i1 %.not, label %115, label %6

6:                                                ; preds = %3
  %7 = getelementptr inbounds nuw i8, ptr %1, i64 16
  %8 = load ptr, ptr %7, align 8
  %.not59 = icmp eq ptr %8, null
  br i1 %.not59, label %9, label %.loopexit70

9:                                                ; preds = %6
  %10 = icmp eq i32 %2, 2
  br i1 %10, label %115, label %11

11:                                               ; preds = %9
  %12 = tail call ptr @build_core_array() #4
  store ptr %12, ptr %7, align 8
  %13 = getelementptr inbounds nuw i8, ptr %1, i64 24
  store i32 0, ptr %13, align 8
  %14 = load i32, ptr @node_record_count, align 4
  %15 = icmp sgt i32 %14, 0
  br i1 %15, label %.lr.ph, label %.loopexit70

.lr.ph:                                           ; preds = %11, %_create_core_bitmap.exit
  %indvars.iv = phi i64 [ %indvars.iv.next, %_create_core_bitmap.exit ], [ 0, %11 ]
  %16 = load ptr, ptr @node_record_table_ptr, align 8
  %17 = getelementptr inbounds nuw ptr, ptr %16, i64 %indvars.iv
  %18 = load ptr, ptr %17, align 8
  %.not.i = icmp eq ptr %18, null
  br i1 %.not.i, label %_create_core_bitmap.exit, label %19

19:                                               ; preds = %.lr.ph
  %20 = getelementptr inbounds nuw i8, ptr %18, i64 512
  %21 = load i16, ptr %20, align 8
  %22 = zext i16 %21 to i64
  %23 = tail call ptr @bit_alloc(i64 noundef %22) #4
  br label %_create_core_bitmap.exit

_create_core_bitmap.exit:                         ; preds = %.lr.ph, %19
  %.0.i = phi ptr [ %23, %19 ], [ null, %.lr.ph ]
  %24 = getelementptr inbounds nuw ptr, ptr %12, i64 %indvars.iv
  store ptr %.0.i, ptr %24, align 8
  %indvars.iv.next = add nuw nsw i64 %indvars.iv, 1
  %25 = load i32, ptr @node_record_count, align 4
  %26 = sext i32 %25 to i64
  %27 = icmp slt i64 %indvars.iv.next, %26
  br i1 %27, label %.lr.ph, label %.loopexit70, !llvm.loop !8

.loopexit70:                                      ; preds = %_create_core_bitmap.exit, %11, %6
  %.050 = phi ptr [ %8, %6 ], [ %12, %11 ], [ %12, %_create_core_bitmap.exit ]
  call void @llvm.lifetime.start.p0(i64 4, ptr nonnull %4) #4
  %28 = getelementptr inbounds nuw i8, ptr %0, i64 96
  store i32 0, ptr %4, align 4
  %29 = load ptr, ptr %28, align 8
  %30 = call ptr @next_node_bitmap(ptr noundef %29, ptr noundef nonnull %4) #4
  %.not6081 = icmp eq ptr %30, null
  br i1 %.not6081, label %.loopexit, label %.lr.ph86

.lr.ph86:                                         ; preds = %.loopexit70
  %31 = getelementptr inbounds nuw i8, ptr %0, i64 154
  %32 = getelementptr inbounds nuw i8, ptr %1, i64 24
  %.not63 = icmp eq i32 %2, 2
  br i1 %.not63, label %.lr.ph86.split.us, label %.lr.ph86.split

.lr.ph86.split.us:                                ; preds = %.lr.ph86, %44
  %33 = phi ptr [ %48, %44 ], [ %30, %.lr.ph86 ]
  %.05182.us = phi i32 [ %.152.us, %44 ], [ 0, %.lr.ph86 ]
  %34 = load i8, ptr %31, align 2
  %35 = icmp eq i8 %34, 1
  br i1 %35, label %37, label %.preheader.us

._crit_edge.split.us.us:                          ; preds = %63, %.preheader.us
  %36 = add nsw i32 %.05182.us, %51
  br label %44

37:                                               ; preds = %.lr.ph86.split.us
  %38 = load i32, ptr %4, align 4
  %39 = sext i32 %38 to i64
  %40 = getelementptr inbounds ptr, ptr %.050, i64 %39
  %41 = load ptr, ptr %40, align 8
  %.not65.us = icmp eq ptr %41, null
  br i1 %.not65.us, label %44, label %42

42:                                               ; preds = %37
  %43 = call i64 @bit_ffs(ptr noundef nonnull %41) #4
  %.not67.us = icmp eq i64 %43, -1
  br i1 %.not67.us, label %44, label %.loopexit

44:                                               ; preds = %37, %42, %._crit_edge.split.us.us
  %.152.us = phi i32 [ %.05182.us, %42 ], [ %36, %._crit_edge.split.us.us ], [ %.05182.us, %37 ]
  %45 = load i32, ptr %4, align 4
  %46 = add nsw i32 %45, 1
  store i32 %46, ptr %4, align 4
  %47 = load ptr, ptr %28, align 8
  %48 = call ptr @next_node_bitmap(ptr noundef %47, ptr noundef nonnull %4) #4
  %.not60.us = icmp eq ptr %48, null
  br i1 %.not60.us, label %.loopexit, label %.lr.ph86.split.us, !llvm.loop !11

.preheader.us:                                    ; preds = %.lr.ph86.split.us
  %49 = getelementptr inbounds nuw i8, ptr %33, i64 512
  %50 = load i16, ptr %49, align 8
  %51 = zext i16 %50 to i32
  %.not96 = icmp eq i16 %50, 0
  br i1 %.not96, label %._crit_edge.split.us.us, label %.lr.ph79.us.preheader

.lr.ph79.us.preheader:                            ; preds = %.preheader.us
  %52 = sext i32 %.05182.us to i64
  %wide.trip.count108 = zext i16 %50 to i64
  br label %.lr.ph79.us

.lr.ph79.us:                                      ; preds = %.lr.ph79.us.preheader, %63
  %indvars.iv105 = phi i64 [ 0, %.lr.ph79.us.preheader ], [ %indvars.iv.next106, %63 ]
  %53 = load ptr, ptr %0, align 8
  %54 = add nsw i64 %indvars.iv105, %52
  %55 = call i32 @slurm_bit_test(ptr noundef %53, i64 noundef %54) #4
  %.not61.us.us = icmp eq i32 %55, 0
  br i1 %.not61.us.us, label %63, label %56

56:                                               ; preds = %.lr.ph79.us
  %57 = load i32, ptr %4, align 4
  %58 = sext i32 %57 to i64
  %59 = getelementptr inbounds ptr, ptr %.050, i64 %58
  %60 = load ptr, ptr %59, align 8
  %.not62.us.us = icmp eq ptr %60, null
  br i1 %.not62.us.us, label %63, label %61

61:                                               ; preds = %56
  %62 = call i32 @slurm_bit_test(ptr noundef nonnull %60, i64 noundef %indvars.iv105) #4
  %.not64.us.us = icmp eq i32 %62, 0
  br i1 %.not64.us.us, label %63, label %.loopexit

63:                                               ; preds = %56, %61, %.lr.ph79.us
  %indvars.iv.next106 = add nuw nsw i64 %indvars.iv105, 1
  %exitcond109.not = icmp eq i64 %indvars.iv.next106, %wide.trip.count108
  br i1 %exitcond109.not, label %._crit_edge.split.us.us, label %.lr.ph79.us, !llvm.loop !12

.lr.ph86.split:                                   ; preds = %.lr.ph86, %110
  %64 = phi ptr [ %114, %110 ], [ %30, %.lr.ph86 ]
  %.05182 = phi i32 [ %.152, %110 ], [ 0, %.lr.ph86 ]
  %65 = getelementptr inbounds nuw i8, ptr %64, i64 512
  %66 = load i16, ptr %65, align 8
  %67 = load i8, ptr %31, align 2
  %68 = icmp eq i8 %67, 1
  br i1 %68, label %71, label %.preheader

.preheader:                                       ; preds = %.lr.ph86.split
  %69 = zext i16 %66 to i32
  %.not95 = icmp eq i16 %66, 0
  br i1 %.not95, label %._crit_edge.split, label %.lr.ph79.preheader

.lr.ph79.preheader:                               ; preds = %.preheader
  %70 = sext i32 %.05182 to i64
  %wide.trip.count = zext i16 %66 to i64
  br label %.lr.ph79

71:                                               ; preds = %.lr.ph86.split
  %72 = load i32, ptr %4, align 4
  %73 = sext i32 %72 to i64
  %74 = getelementptr inbounds ptr, ptr %.050, i64 %73
  %75 = load ptr, ptr %74, align 8
  %.not65 = icmp eq ptr %75, null
  br i1 %.not65, label %76, label %78

76:                                               ; preds = %71
  %77 = call i32 (ptr, ...) @error(ptr noundef nonnull @.str.19, i32 noundef %72, i32 noundef %2) #4
  br label %110

78:                                               ; preds = %71
  switch i32 %2, label %.unreachabledefault [
    i32 0, label %79
    i32 1, label %83
    i32 2, label %87
  ]

79:                                               ; preds = %78
  call void @bit_set_all(ptr noundef nonnull %75) #4
  %80 = zext i16 %66 to i32
  %81 = load i32, ptr %32, align 8
  %82 = add i32 %81, %80
  store i32 %82, ptr %32, align 8
  br label %110

83:                                               ; preds = %78
  call void @bit_clear_all(ptr noundef nonnull %75) #4
  %84 = zext i16 %66 to i32
  %85 = load i32, ptr %32, align 8
  %86 = sub i32 %85, %84
  store i32 %86, ptr %32, align 8
  br label %110

87:                                               ; preds = %78
  %88 = call i64 @bit_ffs(ptr noundef nonnull %75) #4
  %.not67 = icmp eq i64 %88, -1
  br i1 %.not67, label %110, label %.loopexit

.lr.ph79:                                         ; preds = %.lr.ph79.preheader, %108
  %indvars.iv102 = phi i64 [ 0, %.lr.ph79.preheader ], [ %indvars.iv.next103, %108 ]
  %89 = load ptr, ptr %0, align 8
  %90 = add nsw i64 %indvars.iv102, %70
  %91 = call i32 @slurm_bit_test(ptr noundef %89, i64 noundef %90) #4
  %.not61 = icmp eq i32 %91, 0
  br i1 %.not61, label %108, label %92

92:                                               ; preds = %.lr.ph79
  %93 = load i32, ptr %4, align 4
  %94 = sext i32 %93 to i64
  %95 = getelementptr inbounds ptr, ptr %.050, i64 %94
  %96 = load ptr, ptr %95, align 8
  %.not62 = icmp eq ptr %96, null
  br i1 %.not62, label %97, label %99

97:                                               ; preds = %92
  %98 = call i32 (ptr, ...) @error(ptr noundef nonnull @.str.19, i32 noundef %93, i32 noundef %2) #4
  br label %108

99:                                               ; preds = %92
  switch i32 %2, label %.unreachabledefault115 [
    i32 0, label %100
    i32 1, label %103
    i32 2, label %106
  ]

100:                                              ; preds = %99
  call void @bit_set(ptr noundef nonnull %96, i64 noundef %indvars.iv102) #4
  %101 = load i32, ptr %32, align 8
  %102 = add i32 %101, 1
  store i32 %102, ptr %32, align 8
  br label %108

103:                                              ; preds = %99
  call void @bit_clear(ptr noundef nonnull %96, i64 noundef %indvars.iv102) #4
  %104 = load i32, ptr %32, align 8
  %105 = add i32 %104, -1
  store i32 %105, ptr %32, align 8
  br label %108

106:                                              ; preds = %99
  %107 = call i32 @slurm_bit_test(ptr noundef nonnull %96, i64 noundef %indvars.iv102) #4
  %.not64 = icmp eq i32 %107, 0
  br i1 %.not64, label %108, label %.loopexit

108:                                              ; preds = %100, %103, %106, %97, %.lr.ph79
  %indvars.iv.next103 = add nuw nsw i64 %indvars.iv102, 1
  %exitcond.not = icmp eq i64 %indvars.iv.next103, %wide.trip.count
  br i1 %exitcond.not, label %._crit_edge.split, label %.lr.ph79, !llvm.loop !12

._crit_edge.split:                                ; preds = %108, %.preheader
  %109 = add nsw i32 %.05182, %69
  br label %110

.unreachabledefault115:                           ; preds = %99
  unreachable

.unreachabledefault:                              ; preds = %78
  unreachable

110:                                              ; preds = %79, %83, %87, %76, %._crit_edge.split
  %.152 = phi i32 [ %.05182, %87 ], [ %.05182, %83 ], [ %.05182, %79 ], [ %.05182, %76 ], [ %109, %._crit_edge.split ]
  %111 = load i32, ptr %4, align 4
  %112 = add nsw i32 %111, 1
  store i32 %112, ptr %4, align 4
  %113 = load ptr, ptr %28, align 8
  %114 = call ptr @next_node_bitmap(ptr noundef %113, ptr noundef nonnull %4) #4
  %.not60 = icmp eq ptr %114, null
  br i1 %.not60, label %.loopexit, label %.lr.ph86.split, !llvm.loop !11

.loopexit:                                        ; preds = %110, %87, %106, %44, %42, %61, %.loopexit70
  %.not6076 = phi i32 [ 1, %.loopexit70 ], [ 0, %61 ], [ 1, %44 ], [ 0, %42 ], [ 0, %106 ], [ 1, %110 ], [ 0, %87 ]
  call void @llvm.lifetime.end.p0(i64 4, ptr nonnull %4) #4
  br label %115

115:                                              ; preds = %.loopexit, %9, %3
  %.048 = phi i32 [ 1, %3 ], [ 1, %9 ], [ %.not6076, %.loopexit ]
  ret i32 %.048
}